; Function Attrs: nounwind uwtable
define internal void @recff_pcall(ptr noundef %0, ptr noundef writeonly captures(none) %1) #0 {
  %3 = getelementptr inbounds nuw i8, ptr %0, i64 172
  %4 = load i32, ptr %3, align 4, !tbaa !38
  %.not = icmp eq i32 %4, 0
  br i1 %.not, label %16, label %5

5:                                                ; preds = %2
  %6 = getelementptr inbounds nuw i8, ptr %0, i64 160
  %7 = load ptr, ptr %6, align 8, !tbaa !37
  %8 = getelementptr inbounds nuw i8, ptr %7, i64 4
  %9 = zext i32 %4 to i64
  %10 = shl nuw nsw i64 %9, 2
  tail call void @llvm.memmove.p0.p0.i64(ptr nonnull align 4 %8, ptr align 4 %7, i64 %10, i1 false)
  %11 = load i32, ptr %3, align 4, !tbaa !38
  %12 = add i32 %11, -1
  %13 = zext i32 %12 to i64
  tail call void @lj_record_call(ptr noundef nonnull %0, i32 noundef 0, i64 noundef %13) #9
  %14 = getelementptr inbounds nuw i8, ptr %1, i64 8
  store i64 -1, ptr %14, align 8, !tbaa !32
  %15 = getelementptr inbounds nuw i8, ptr %0, i64 181
  store i8 1, ptr %15, align 1, !tbaa !54
  br label %16

16:                                               ; preds = %5, %2
  ret void
}